; Function Attrs: nounwind uwtable
define noalias noundef ptr @Cof_ManCollectHighFanout(ptr noundef readonly captures(none) %0, i32 noundef %1) local_unnamed_addr #0 {
  %3 = tail call noalias dereferenceable_or_null(16) ptr @malloc(i64 noundef 16) #26
  %4 = add i32 %1, -1
  %or.cond.i = icmp ult i32 %4, 7
  %spec.store.select.i = select i1 %or.cond.i, i32 8, i32 %1
  %5 = getelementptr inbounds nuw i8, ptr %3, i64 4
  store i32 0, ptr %5, align 4, !tbaa !64
  store i32 %spec.store.select.i, ptr %3, align 8, !tbaa !66
  %.not.i = icmp eq i32 %spec.store.select.i, 0
  br i1 %.not.i, label %Vec_PtrAlloc.exit, label %6

6:                                                ; preds = %2
  %7 = sext i32 %spec.store.select.i to i64
  %8 = shl nsw i64 %7, 3
  %9 = tail call noalias ptr @malloc(i64 noundef %8) #26
  br label %Vec_PtrAlloc.exit

Vec_PtrAlloc.exit:                                ; preds = %2, %6
  %10 = phi ptr [ %9, %6 ], [ null, %2 ]
  %11 = getelementptr inbounds nuw i8, ptr %3, i64 8
  store ptr %10, ptr %11, align 8, !tbaa !67
  %12 = getelementptr i8, ptr %0, i64 40
  %13 = getelementptr inbounds nuw i8, ptr %0, i64 48
  %14 = load i32, ptr %13, align 8, !tbaa !37
  %15 = icmp sgt i32 %14, 0
  br i1 %15, label %.lr.ph, label %.critedge

.lr.ph:                                           ; preds = %Vec_PtrAlloc.exit, %26
  %16 = phi i32 [ %27, %26 ], [ %14, %Vec_PtrAlloc.exit ]
  %.022 = phi i32 [ %31, %26 ], [ 0, %Vec_PtrAlloc.exit ]
  %.val = load ptr, ptr %12, align 8, !tbaa !38
  %17 = zext nneg i32 %.022 to i64
  %18 = getelementptr inbounds nuw i32, ptr %.val, i64 %17
  %.not = icmp eq ptr %.val, null
  br i1 %.not, label %.critedge, label %19

19:                                               ; preds = %.lr.ph
  %.val16 = load i32, ptr %18, align 4
  %20 = and i32 %.val16, 241
  %narrow.i.not = icmp eq i32 %20, 1
  br i1 %narrow.i.not, label %25, label %21

21:                                               ; preds = %19
  %22 = and i32 %.val16, 1
  %.not.i18 = icmp ne i32 %22, 0
  %23 = and i32 %.val16, 240
  %24 = icmp eq i32 %23, 0
  %narrow.i19.not = or i1 %.not.i18, %24
  br i1 %narrow.i19.not, label %26, label %25

25:                                               ; preds = %21, %19
  tail call void @Cof_ManInsertEntry_rec(ptr noundef nonnull %3, ptr noundef nonnull %18, i32 noundef %1)
  %.val15.pre = load i32, ptr %18, align 4
  %.pre = load i32, ptr %13, align 8, !tbaa !37
  br label %26

26:                                               ; preds = %21, %25
  %27 = phi i32 [ %16, %21 ], [ %.pre, %25 ]
  %.val15 = phi i32 [ %.val16, %21 ], [ %.val15.pre, %25 ]
  %28 = lshr i32 %.val15, 4
  %29 = and i32 %28, 15
  %30 = lshr i32 %.val15, 8
  %narrow.i20 = add nuw nsw i32 %.022, 6
  %narrow2.i = add nuw nsw i32 %narrow.i20, %30
  %31 = add nuw nsw i32 %narrow2.i, %29
  %32 = icmp slt i32 %31, %27
  br i1 %32, label %.lr.ph, label %.critedge, !llvm.loop !69

.critedge:                                        ; preds = %.lr.ph, %26, %Vec_PtrAlloc.exit
  ret ptr %3
}